target datalayout = "e-m:e-p270:32:32-p271:32:32-p272:64:64-i64:64-i128:128-f80:128-n8:16:32:64-S128"
target triple = "x86_64-pc-linux-gnu"

%struct.mock_srv_ctx = type { ptr, ptr, ptr, ptr, ptr, ptr, ptr, ptr, ptr, ptr, i32, ptr, i32, i32, i32 }

@.str = private unnamed_addr constant [35 x i8] c"../openssl/apps/lib/cmp_mock_srv.c\00", align 1
@__func__.process_genm = private unnamed_addr constant [13 x i8] c"process_genm\00", align 1

; Function Attrs: inlinehint nounwind uwtable
define internal ptr @ossl_check_OSSL_CMP_ITAV_freefunc_type(ptr noundef %0) #3 {
  %2 = alloca ptr, align 8
  store ptr %0, ptr %2, align 8, !tbaa !11
  %3 = load ptr, ptr %2, align 8, !tbaa !11
  ret ptr %3
}

; Function Attrs: inlinehint nounwind uwtable
define internal ptr @ossl_check_OSSL_CMP_ITAV_copyfunc_type(ptr noundef %0) #3 {
  %2 = alloca ptr, align 8
  store ptr %0, ptr %2, align 8, !tbaa !11
  %3 = load ptr, ptr %2, align 8, !tbaa !11
  ret ptr %3
}

; Function Attrs: inlinehint nounwind uwtable
define internal ptr @ossl_check_OSSL_CMP_ITAV_type(ptr noundef %0) #3 {
  %2 = alloca ptr, align 8
  store ptr %0, ptr %2, align 8, !tbaa !54
  %3 = load ptr, ptr %2, align 8, !tbaa !54
  ret ptr %3
}

; Function Attrs: inlinehint nounwind uwtable
define internal ptr @ossl_check_OSSL_CMP_ITAV_sk_type(ptr noundef %0) #3 {
  %2 = alloca ptr, align 8
  store ptr %0, ptr %2, align 8, !tbaa !52
  %3 = load ptr, ptr %2, align 8, !tbaa !52
  ret ptr %3
}

; Function Attrs: inlinehint nounwind uwtable
define internal ptr @ossl_check_OSSL_CMP_ITAV_compfunc_type(ptr noundef %0) #3 {
  %2 = alloca ptr, align 8
  store ptr %0, ptr %2, align 8, !tbaa !11
  %3 = load ptr, ptr %2, align 8, !tbaa !11
  ret ptr %3
}

; Function Attrs: inlinehint nounwind uwtable
define internal ptr @ossl_check_const_OSSL_CMP_ITAV_sk_type(ptr noundef %0) #3 {
  %2 = alloca ptr, align 8
  store ptr %0, ptr %2, align 8, !tbaa !52
  %3 = load ptr, ptr %2, align 8, !tbaa !52
  ret ptr %3
}

; Function Attrs: nounwind uwtable
define internal i32 @process_genm(ptr noundef %0, ptr noundef %1, ptr noundef %2, ptr noundef %3) #0 {
  %5 = alloca i32, align 4
  %6 = alloca ptr, align 8
  %7 = alloca ptr, align 8
  %8 = alloca ptr, align 8
  %9 = alloca ptr, align 8
  %10 = alloca ptr, align 8
  %11 = alloca i32, align 4
  %12 = alloca ptr, align 8
  %13 = alloca ptr, align 8
  %14 = alloca ptr, align 8
  store ptr %0, ptr %6, align 8, !tbaa !4
  store ptr %1, ptr %7, align 8, !tbaa !41
  store ptr %2, ptr %8, align 8, !tbaa !52
  store ptr %3, ptr %9, align 8, !tbaa !68
  call void @llvm.lifetime.start.p0(i64 8, ptr %10) #5
  %15 = load ptr, ptr %6, align 8, !tbaa !4
  %16 = call ptr @OSSL_CMP_SRV_CTX_get0_custom_ctx(ptr noundef %15)
  store ptr %16, ptr %10, align 8, !tbaa !11
  %17 = load ptr, ptr %10, align 8, !tbaa !11
  %18 = icmp eq ptr %17, null
  br i1 %18, label %28, label %19

19:                                               ; preds = %4
  %20 = load ptr, ptr %7, align 8, !tbaa !41
  %21 = icmp eq ptr %20, null
  br i1 %21, label %28, label %22

22:                                               ; preds = %19
  %23 = load ptr, ptr %8, align 8, !tbaa !52
  %24 = icmp eq ptr %23, null
  br i1 %24, label %28, label %25

25:                                               ; preds = %22
  %26 = load ptr, ptr %9, align 8, !tbaa !68
  %27 = icmp eq ptr %26, null
  br i1 %27, label %28, label %29

28:                                               ; preds = %25, %22, %19, %4
  call void @ERR_new()
  call void @ERR_set_debug(ptr noundef @.str, i32 noundef 582, ptr noundef @__func__.process_genm)
  call void (i32, i32, ptr, ...) @ERR_set_error(i32 noundef 58, i32 noundef 103, ptr noundef null)
  store i32 0, ptr %5, align 4
  store i32 1, ptr %11, align 4
  br label %96

29:                                               ; preds = %25
  %30 = load ptr, ptr %10, align 8, !tbaa !11
  %31 = getelementptr inbounds nuw %struct.mock_srv_ctx, ptr %30, i32 0, i32 10
  %32 = load i32, ptr %31, align 8, !tbaa !36
  %33 = icmp eq i32 %32, 1
  br i1 %33, label %46, label %34

34:                                               ; preds = %29
  %35 = load ptr, ptr %10, align 8, !tbaa !11
  %36 = getelementptr inbounds nuw %struct.mock_srv_ctx, ptr %35, i32 0, i32 10
  %37 = load i32, ptr %36, align 8, !tbaa !36
  %38 = load ptr, ptr %7, align 8, !tbaa !41
  %39 = call i32 @OSSL_CMP_MSG_get_bodytype(ptr noundef %38)
  %40 = icmp eq i32 %37, %39
  br i1 %40, label %46, label %41

41:                                               ; preds = %34
  %42 = load ptr, ptr %8, align 8, !tbaa !52
  %43 = call ptr @ossl_check_const_OSSL_CMP_ITAV_sk_type(ptr noundef %42)
  %44 = call i32 @OPENSSL_sk_num(ptr noundef %43)
  %45 = icmp sgt i32 %44, 1
  br i1 %45, label %46, label %47

46:                                               ; preds = %41, %34, %29
  call void @ERR_new()
  call void @ERR_set_debug(ptr noundef @.str, i32 noundef 588, ptr noundef @__func__.process_genm)
  call void (i32, i32, ptr, ...) @ERR_set_error(i32 noundef 58, i32 noundef 158, ptr noundef null)
  store i32 0, ptr %5, align 4
  store i32 1, ptr %11, align 4
  br label %96

47:                                               ; preds = %41
  %48 = load ptr, ptr %8, align 8, !tbaa !52
  %49 = call ptr @ossl_check_const_OSSL_CMP_ITAV_sk_type(ptr noundef %48)
  %50 = call i32 @OPENSSL_sk_num(ptr noundef %49)
  %51 = icmp eq i32 %50, 1
  br i1 %51, label %52, label %85

52:                                               ; preds = %47
  call void @llvm.lifetime.start.p0(i64 8, ptr %12) #5
  %53 = load ptr, ptr %8, align 8, !tbaa !52
  %54 = call ptr @ossl_check_const_OSSL_CMP_ITAV_sk_type(ptr noundef %53)
  %55 = call ptr @OPENSSL_sk_value(ptr noundef %54, i32 noundef 0)
  store ptr %55, ptr %12, align 8, !tbaa !54
  call void @llvm.lifetime.start.p0(i64 8, ptr %13) #5
  call void @llvm.lifetime.start.p0(i64 8, ptr %14) #5
  %56 = load ptr, ptr %12, align 8, !tbaa !54
  %57 = call ptr @OSSL_CMP_ITAV_get0_type(ptr noundef %56)
  store ptr %57, ptr %14, align 8, !tbaa !56
  %58 = call ptr @ossl_check_OSSL_CMP_ITAV_compfunc_type(ptr noundef null)
  %59 = call ptr @OPENSSL_sk_new_reserve(ptr noundef %58, i32 noundef 1)
  %60 = load ptr, ptr %9, align 8, !tbaa !68
  store ptr %59, ptr %60, align 8, !tbaa !52
  %61 = icmp eq ptr %59, null
  br i1 %61, label %62, label %63

62:                                               ; preds = %52
  store i32 0, ptr %5, align 4
  store i32 1, ptr %11, align 4
  br label %84

63:                                               ; preds = %52
  %64 = load ptr, ptr %10, align 8, !tbaa !11
  %65 = load ptr, ptr %14, align 8, !tbaa !56
  %66 = call i32 @OBJ_obj2nid(ptr noundef %65)
  %67 = load ptr, ptr %12, align 8, !tbaa !54
  %68 = call ptr @process_genm_itav(ptr noundef %64, i32 noundef %66, ptr noundef %67)
  store ptr %68, ptr %13, align 8, !tbaa !54
  %69 = load ptr, ptr %13, align 8, !tbaa !54
  %70 = icmp ne ptr %69, null
  br i1 %70, label %71, label %80

71:                                               ; preds = %63
  %72 = load ptr, ptr %9, align 8, !tbaa !68
  %73 = load ptr, ptr %72, align 8, !tbaa !52
  %74 = call ptr @ossl_check_OSSL_CMP_ITAV_sk_type(ptr noundef %73)
  %75 = load ptr, ptr %13, align 8, !tbaa !54
  %76 = call ptr @ossl_check_OSSL_CMP_ITAV_type(ptr noundef %75)
  %77 = call i32 @OPENSSL_sk_push(ptr noundef %74, ptr noundef %76)
  %78 = icmp ne i32 %77, 0
  br i1 %78, label %79, label %80

79:                                               ; preds = %71
  store i32 1, ptr %5, align 4
  store i32 1, ptr %11, align 4
  br label %84

80:                                               ; preds = %71, %63
  %81 = load ptr, ptr %9, align 8, !tbaa !68
  %82 = load ptr, ptr %81, align 8, !tbaa !52
  %83 = call ptr @ossl_check_OSSL_CMP_ITAV_sk_type(ptr noundef %82)
  call void @OPENSSL_sk_free(ptr noundef %83)
  store i32 0, ptr %5, align 4
  store i32 1, ptr %11, align 4
  br label %84

84:                                               ; preds = %80, %79, %62
  call void @llvm.lifetime.end.p0(i64 8, ptr %14) #5
  call void @llvm.lifetime.end.p0(i64 8, ptr %13) #5
  call void @llvm.lifetime.end.p0(i64 8, ptr %12) #5
  br label %96

85:                                               ; preds = %47
  %86 = load ptr, ptr %8, align 8, !tbaa !52
  %87 = call ptr @ossl_check_const_OSSL_CMP_ITAV_sk_type(ptr noundef %86)
  %88 = call ptr @ossl_check_OSSL_CMP_ITAV_copyfunc_type(ptr noundef @OSSL_CMP_ITAV_dup)
  %89 = call ptr @ossl_check_OSSL_CMP_ITAV_freefunc_type(ptr noundef @OSSL_CMP_ITAV_free)
  %90 = call ptr @OPENSSL_sk_deep_copy(ptr noundef %87, ptr noundef %88, ptr noundef %89)
  %91 = load ptr, ptr %9, align 8, !tbaa !68
  store ptr %90, ptr %91, align 8, !tbaa !52
  %92 = load ptr, ptr %9, align 8, !tbaa !68
  %93 = load ptr, ptr %92, align 8, !tbaa !52
  %94 = icmp ne ptr %93, null
  %95 = zext i1 %94 to i32
  store i32 %95, ptr %5, align 4
  store i32 1, ptr %11, align 4
  br label %96

96:                                               ; preds = %85, %84, %46, %28
  call void @llvm.lifetime.end.p0(i64 8, ptr %10) #5
  %97 = load i32, ptr %5, align 4
  ret i32 %97
}