; Function Attrs: nounwind uwtable
define internal range(i32 0, 2) i32 @process_genm(ptr noundef %0, ptr noundef %1, ptr noundef %2, ptr noundef captures(address_is_null) %3) #0 {
  %5 = tail call ptr @OSSL_CMP_SRV_CTX_get0_custom_ctx(ptr noundef %0) #4
  %6 = icmp eq ptr %5, null
  %7 = icmp eq ptr %1, null
  %or.cond = or i1 %7, %6
  %8 = icmp eq ptr %2, null
  %or.cond3 = or i1 %8, %or.cond
  %9 = icmp eq ptr %3, null
  %or.cond5 = or i1 %9, %or.cond3
  br i1 %or.cond5, label %10, label %11

10:                                               ; preds = %4
  tail call void @ERR_new() #4
  tail call void @ERR_set_debug(ptr noundef nonnull @.str, i32 noundef 582, ptr noundef nonnull @__func__.process_genm) #4
  tail call void (i32, i32, ptr, ...) @ERR_set_error(i32 noundef 58, i32 noundef 103, ptr noundef null) #4
  br label %42

11:                                               ; preds = %4
  %12 = getelementptr inbounds nuw i8, ptr %5, i64 80
  %13 = load i32, ptr %12, align 8, !tbaa !25
  %14 = icmp eq i32 %13, 1
  br i1 %14, label %21, label %15

15:                                               ; preds = %11
  %16 = tail call i32 @OSSL_CMP_MSG_get_bodytype(ptr noundef nonnull %1) #4
  %17 = icmp eq i32 %13, %16
  br i1 %17, label %21, label %18

18:                                               ; preds = %15
  %19 = tail call i32 @OPENSSL_sk_num(ptr noundef nonnull %2) #4
  %20 = icmp sgt i32 %19, 1
  br i1 %20, label %21, label %22

21:                                               ; preds = %18, %15, %11
  tail call void @ERR_new() #4
  tail call void @ERR_set_debug(ptr noundef nonnull @.str, i32 noundef 588, ptr noundef nonnull @__func__.process_genm) #4
  tail call void (i32, i32, ptr, ...) @ERR_set_error(i32 noundef 58, i32 noundef 158, ptr noundef null) #4
  br label %42

22:                                               ; preds = %18
  %23 = tail call i32 @OPENSSL_sk_num(ptr noundef nonnull %2) #4
  %24 = icmp eq i32 %23, 1
  br i1 %24, label %25, label %38

25:                                               ; preds = %22
  %26 = tail call ptr @OPENSSL_sk_value(ptr noundef nonnull %2, i32 noundef 0) #4
  %27 = tail call ptr @OSSL_CMP_ITAV_get0_type(ptr noundef %26) #4
  %28 = tail call ptr @OPENSSL_sk_new_reserve(ptr noundef null, i32 noundef 1) #4
  store ptr %28, ptr %3, align 8, !tbaa !36
  %29 = icmp eq ptr %28, null
  br i1 %29, label %42, label %30

30:                                               ; preds = %25
  %31 = tail call i32 @OBJ_obj2nid(ptr noundef %27) #4
  %32 = tail call fastcc ptr @process_genm_itav(ptr noundef %5, i32 noundef %31, ptr noundef %26)
  %.not = icmp eq ptr %32, null
  br i1 %.not, label %36, label %33

33:                                               ; preds = %30
  %34 = load ptr, ptr %3, align 8, !tbaa !36
  %35 = tail call i32 @OPENSSL_sk_push(ptr noundef %34, ptr noundef nonnull %32) #4
  %.not34 = icmp eq i32 %35, 0
  br i1 %.not34, label %36, label %42

36:                                               ; preds = %33, %30
  %37 = load ptr, ptr %3, align 8, !tbaa !36
  tail call void @OPENSSL_sk_free(ptr noundef %37) #4
  br label %42

38:                                               ; preds = %22
  %39 = tail call ptr @OPENSSL_sk_deep_copy(ptr noundef nonnull %2, ptr noundef nonnull @OSSL_CMP_ITAV_dup, ptr noundef nonnull @OSSL_CMP_ITAV_free) #4
  store ptr %39, ptr %3, align 8, !tbaa !36
  %40 = icmp ne ptr %39, null
  %41 = zext i1 %40 to i32
  br label %42

42:                                               ; preds = %36, %25, %33, %38, %21, %10
  %.0 = phi i32 [ 0, %10 ], [ 0, %21 ], [ %41, %38 ], [ 0, %36 ], [ 0, %25 ], [ 1, %33 ]
  ret i32 %.0
}